; Function Attrs: null_pointer_is_valid sspstrong uwtable
define internal i32 @rs_pgo_dissect_is_member_rqst(ptr noundef %0, i32 noundef %1, ptr noundef %2, ptr noundef %3, ptr noundef %4, ptr noundef %5) #0 {
  %7 = alloca ptr, align 8
  %8 = alloca i32, align 4
  %9 = getelementptr inbounds nuw i8, ptr %4, i64 25
  %10 = load i8, ptr %9, align 1, !range !6, !noundef !7
  %11 = trunc nuw i8 %10 to i1
  br i1 %11, label %27, label %12

12:                                               ; preds = %6
  %13 = add i32 %1, 4
  call void @llvm.lifetime.start.p0(i64 8, ptr nonnull %7) #3
  store ptr null, ptr %7, align 8
  call void @llvm.lifetime.start.p0(i64 4, ptr nonnull %8) #3
  %.not.i = icmp eq ptr %3, null
  br i1 %.not.i, label %dissect_sec_rgy_domain_t.exit, label %14

14:                                               ; preds = %12
  %15 = load i32, ptr @ett_sec_rgy_domain_t, align 4
  %16 = call ptr @proto_tree_add_subtree(ptr noundef nonnull %3, ptr noundef %0, i32 noundef %13, i32 noundef -1, i32 noundef %15, ptr noundef nonnull %7, ptr noundef nonnull @.str.49)
  br label %dissect_sec_rgy_domain_t.exit

dissect_sec_rgy_domain_t.exit:                    ; preds = %12, %14
  %.017.i = phi ptr [ %16, %14 ], [ null, %12 ]
  %17 = load i32, ptr @hf_sec_rgy_domain_t, align 4
  %18 = call i32 @dissect_ndr_uint32(ptr noundef %0, i32 noundef %13, ptr noundef %2, ptr noundef %.017.i, ptr noundef %4, ptr noundef %5, i32 noundef %17, ptr noundef nonnull %8)
  %19 = getelementptr inbounds nuw i8, ptr %2, i64 8
  %20 = load ptr, ptr %19, align 8
  %21 = load i32, ptr %8, align 4
  call void (ptr, i32, ptr, ...) @col_append_fstr(ptr noundef %20, i32 noundef 25, ptr noundef nonnull @.str.50, i32 noundef %21)
  %22 = load ptr, ptr %7, align 8
  %23 = sub i32 %18, %13
  call void @proto_item_set_len(ptr noundef %22, i32 noundef %23)
  call void @llvm.lifetime.end.p0(i64 4, ptr nonnull %8) #3
  call void @llvm.lifetime.end.p0(i64 8, ptr nonnull %7) #3
  %24 = call fastcc i32 @dissect_sec_rgy_name_t(ptr noundef %0, i32 noundef %18, ptr noundef %2, ptr noundef %3, ptr noundef %4, ptr noundef %5)
  %25 = add i32 %24, 4
  %26 = call fastcc i32 @dissect_sec_rgy_name_t(ptr noundef %0, i32 noundef %25, ptr noundef %2, ptr noundef %3, ptr noundef %4, ptr noundef %5)
  br label %27

27:                                               ; preds = %6, %dissect_sec_rgy_domain_t.exit
  %.0 = phi i32 [ %26, %dissect_sec_rgy_domain_t.exit ], [ %1, %6 ]
  ret i32 %.0
}